; Function Attrs: mustprogress norecurse uwtable
define internal fastcc void @_ZL4helpPPKc(ptr noundef readonly captures(none) %0) unnamed_addr #7 {
  %2 = tail call noundef nonnull align 8 dereferenceable(8) ptr @_ZSt16__ostream_insertIcSt11char_traitsIcEERSt13basic_ostreamIT_T0_ES6_PKS3_l(ptr noundef nonnull align 8 dereferenceable(8) @_ZSt4cout, ptr noundef nonnull @.str.14, i64 noundef 206)
  %3 = load ptr, ptr %0, align 8, !tbaa !11
  %.not.i = icmp eq ptr %3, null
  br i1 %.not.i, label %4, label %12

4:                                                ; preds = %1
  %5 = load ptr, ptr @_ZSt4cout, align 8, !tbaa !38
  %6 = getelementptr i8, ptr %5, i64 -24
  %7 = load i64, ptr %6, align 8
  %8 = getelementptr inbounds i8, ptr @_ZSt4cout, i64 %7
  %9 = getelementptr inbounds nuw i8, ptr %8, i64 32
  %10 = load i32, ptr %9, align 8, !tbaa !70
  %11 = or i32 %10, 1
  tail call void @_ZNSt9basic_iosIcSt11char_traitsIcEE5clearESt12_Ios_Iostate(ptr noundef nonnull align 8 dereferenceable(264) %8, i32 noundef %11)
  br label %_ZStlsISt11char_traitsIcEERSt13basic_ostreamIcT_ES5_PKc.exit

12:                                               ; preds = %1
  %13 = tail call noundef i64 @strlen(ptr noundef nonnull dereferenceable(1) %3) #19
  %14 = tail call noundef nonnull align 8 dereferenceable(8) ptr @_ZSt16__ostream_insertIcSt11char_traitsIcEERSt13basic_ostreamIT_T0_ES6_PKS3_l(ptr noundef nonnull align 8 dereferenceable(8) @_ZSt4cout, ptr noundef nonnull %3, i64 noundef %13)
  br label %_ZStlsISt11char_traitsIcEERSt13basic_ostreamIcT_ES5_PKc.exit

_ZStlsISt11char_traitsIcEERSt13basic_ostreamIcT_ES5_PKc.exit: ; preds = %4, %12
  %15 = tail call noundef nonnull align 8 dereferenceable(8) ptr @_ZSt16__ostream_insertIcSt11char_traitsIcEERSt13basic_ostreamIT_T0_ES6_PKS3_l(ptr noundef nonnull align 8 dereferenceable(8) @_ZSt4cout, ptr noundef nonnull @.str.15, i64 noundef 17)
  %16 = load ptr, ptr @_Z8hot_keysB5cxx11, align 8, !tbaa !17
  %17 = load i64, ptr getelementptr inbounds nuw (i8, ptr @_Z8hot_keysB5cxx11, i64 8), align 8, !tbaa !20
  %18 = tail call noundef nonnull align 8 dereferenceable(8) ptr @_ZSt16__ostream_insertIcSt11char_traitsIcEERSt13basic_ostreamIT_T0_ES6_PKS3_l(ptr noundef nonnull align 8 dereferenceable(8) @_ZSt4cout, ptr noundef %16, i64 noundef %17)
  ret void
}